target datalayout = "e-m:e-p270:32:32-p271:32:32-p272:64:64-i64:64-i128:128-f80:128-n8:16:32:64-S128"
target triple = "x86_64-pc-linux-gnu"

; Function Attrs: mustprogress uwtable
define noundef i64 @_ZNK6icu_7720IslamicCivilCalendar9yearStartEiR10UErrorCode(ptr noundef nonnull align 8 dereferenceable(192) %0, i32 noundef %1, ptr noundef nonnull align 4 dereferenceable(4) %2) unnamed_addr #1 align 2 {
  %4 = alloca ptr, align 8
  %5 = alloca i32, align 4
  %6 = alloca ptr, align 8
  store ptr %0, ptr %4, align 8, !tbaa !43
  store i32 %1, ptr %5, align 4, !tbaa !17
  store ptr %2, ptr %6, align 8, !tbaa !12
  %7 = load i32, ptr %5, align 4, !tbaa !17
  %8 = sext i32 %7 to i64
  %9 = sub nsw i64 %8, 1
  %10 = mul nsw i64 354, %9
  %11 = load i32, ptr %5, align 4, !tbaa !17
  %12 = sext i32 %11 to i64
  %13 = mul nsw i64 11, %12
  %14 = add nsw i64 3, %13
  %15 = call noundef i64 @_ZN6icu_779ClockMath16floorDivideInt64Ell(i64 noundef %14, i64 noundef 30)
  %16 = add nsw i64 %10, %15
  ret i64 %16
}