; Function Attrs: mustprogress uwtable
define noundef i64 @_ZNK6icu_7720IslamicCivilCalendar9yearStartEiR10UErrorCode(ptr nonnull readnone align 8 captures(none) %0, i32 noundef %1, ptr nonnull readnone align 4 captures(none) %2) unnamed_addr #1 align 2 {
  %4 = sext i32 %1 to i64
  %5 = mul nsw i64 %4, 354
  %6 = add nsw i64 %5, -354
  %7 = mul nsw i64 %4, 11
  %8 = add nsw i64 %7, 3
  %9 = tail call noundef i64 @_ZN6icu_779ClockMath16floorDivideInt64Ell(i64 noundef %8, i64 noundef 30)
  %10 = add nsw i64 %6, %9
  ret i64 %10
}